; Function Attrs: mustprogress uwtable
define dso_local noundef nonnull align 8 dereferenceable(8) ptr @_ZlsRSoRK19V3ConfigIgnoresLine(ptr noundef nonnull align 8 dereferenceable(8) %0, ptr nocapture noundef nonnull readonly align 4 dereferenceable(8) %1) local_unnamed_addr #3 {
  %3 = load i32, ptr %1, align 4
  %4 = tail call noundef nonnull align 8 dereferenceable(8) ptr @_ZNSolsEi(ptr noundef nonnull align 8 dereferenceable(8) %0, i32 noundef %3)
  %5 = tail call noundef nonnull align 8 dereferenceable(8) ptr @_ZStlsISt11char_traitsIcEERSt13basic_ostreamIcT_ES5_PKc(ptr noundef nonnull align 8 dereferenceable(8) %4, ptr noundef nonnull @.str)
  %6 = getelementptr inbounds i8, ptr %1, i64 4
  %7 = load i8, ptr %6, align 4
  %8 = zext i8 %7 to i64
  %9 = getelementptr inbounds [120 x ptr], ptr @_ZZNK11V3ErrorCode5asciiEvE5names, i64 0, i64 %8
  %10 = load ptr, ptr %9, align 8
  %11 = tail call noundef nonnull align 8 dereferenceable(8) ptr @_ZStlsISt11char_traitsIcEERSt13basic_ostreamIcT_ES5_PKc(ptr noundef nonnull align 8 dereferenceable(8) %5, ptr noundef %10)
  %12 = tail call noundef nonnull align 8 dereferenceable(8) ptr @_ZStlsISt11char_traitsIcEERSt13basic_ostreamIcT_ES5_PKc(ptr noundef nonnull align 8 dereferenceable(8) %11, ptr noundef nonnull @.str)
  %13 = getelementptr inbounds i8, ptr %1, i64 5
  %14 = load i8, ptr %13, align 1
  %15 = and i8 %14, 1
  %16 = icmp ne i8 %15, 0
  %17 = tail call noundef nonnull align 8 dereferenceable(8) ptr @_ZNSolsEb(ptr noundef nonnull align 8 dereferenceable(8) %12, i1 noundef zeroext %16)
  ret ptr %17
}